target datalayout = "e-m:e-p270:32:32-p271:32:32-p272:64:64-i64:64-i128:128-f80:128-n8:16:32:64-S128"
target triple = "x86_64-pc-linux-gnu"

%struct.Dar_Cut_t_ = type { i32, i32, [4 x i32] }
%struct.Cnf_Man_t_ = type { ptr, ptr, ptr, i32, ptr, i32, [4 x ptr], ptr, i64, i64, i64 }
%struct.Aig_Obj_t_ = type { %union.anon, ptr, ptr, i64, i32, i32, %union.anon.0 }
%union.anon = type { ptr }
%union.anon.0 = type { ptr }
%struct.Aig_Man_t_ = type { ptr, ptr, ptr, ptr, ptr, ptr, ptr, %struct.Aig_Obj_t_, i32, i32, i32, i32, i32, i32, [7 x i32], i32, ptr, i32, ptr, i32, ptr, i32, i32, i32, ptr, i32, i32, i32, i32, i32, ptr, ptr, i32, ptr, ptr, i32, ptr, ptr, i32, i32, i32, ptr, ptr, ptr, ptr, ptr, ptr, ptr, ptr, ptr, ptr, ptr, ptr, ptr, ptr, i32, ptr, ptr, ptr, ptr, i32, i64, i64, i64, ptr, ptr }
%struct.Vec_Ptr_t_ = type { i32, i32, ptr }

; Function Attrs: nounwind uwtable
define internal ptr @Vec_PtrEntry(ptr noundef %0, i32 noundef %1) #0 {
  %3 = alloca ptr, align 8
  %4 = alloca i32, align 4
  store ptr %0, ptr %3, align 8
  store i32 %1, ptr %4, align 4
  %5 = load ptr, ptr %3, align 8
  %6 = getelementptr inbounds %struct.Vec_Ptr_t_, ptr %5, i32 0, i32 2
  %7 = load ptr, ptr %6, align 8
  %8 = load i32, ptr %4, align 4
  %9 = sext i32 %8 to i64
  %10 = getelementptr inbounds ptr, ptr %7, i64 %9
  %11 = load ptr, ptr %10, align 8
  ret ptr %11
}

; Function Attrs: nounwind uwtable
define internal i32 @Aig_ObjIsNode(ptr noundef %0) #0 {
  %2 = alloca ptr, align 8
  store ptr %0, ptr %2, align 8
  %3 = load ptr, ptr %2, align 8
  %4 = getelementptr inbounds %struct.Aig_Obj_t_, ptr %3, i32 0, i32 3
  %5 = load i64, ptr %4, align 8
  %6 = and i64 %5, 7
  %7 = trunc i64 %6 to i32
  %8 = icmp eq i32 %7, 5
  br i1 %8, label %16, label %9

9:                                                ; preds = %1
  %10 = load ptr, ptr %2, align 8
  %11 = getelementptr inbounds %struct.Aig_Obj_t_, ptr %10, i32 0, i32 3
  %12 = load i64, ptr %11, align 8
  %13 = and i64 %12, 7
  %14 = trunc i64 %13 to i32
  %15 = icmp eq i32 %14, 6
  br label %16

16:                                               ; preds = %9, %1
  %17 = phi i1 [ true, %1 ], [ %15, %9 ]
  %18 = zext i1 %17 to i32
  ret i32 %18
}

; Function Attrs: nounwind uwtable
define internal ptr @Aig_ManObj(ptr noundef %0, i32 noundef %1) #0 {
  %3 = alloca ptr, align 8
  %4 = alloca i32, align 4
  store ptr %0, ptr %3, align 8
  store i32 %1, ptr %4, align 4
  %5 = load ptr, ptr %3, align 8
  %6 = getelementptr inbounds %struct.Aig_Man_t_, ptr %5, i32 0, i32 4
  %7 = load ptr, ptr %6, align 8
  %8 = icmp ne ptr %7, null
  br i1 %8, label %9, label %15

9:                                                ; preds = %2
  %10 = load ptr, ptr %3, align 8
  %11 = getelementptr inbounds %struct.Aig_Man_t_, ptr %10, i32 0, i32 4
  %12 = load ptr, ptr %11, align 8
  %13 = load i32, ptr %4, align 4
  %14 = call ptr @Vec_PtrEntry(ptr noundef %12, i32 noundef %13)
  br label %16

15:                                               ; preds = %2
  br label %16

16:                                               ; preds = %15, %9
  %17 = phi ptr [ %14, %9 ], [ null, %15 ]
  ret ptr %17
}

; Function Attrs: nounwind uwtable
define internal i32 @Cnf_CutSopCost(ptr noundef %0, ptr noundef %1) #0 {
  %3 = alloca ptr, align 8
  %4 = alloca ptr, align 8
  store ptr %0, ptr %3, align 8
  store ptr %1, ptr %4, align 8
  %5 = load ptr, ptr %3, align 8
  %6 = getelementptr inbounds %struct.Cnf_Man_t_, ptr %5, i32 0, i32 1
  %7 = load ptr, ptr %6, align 8
  %8 = load ptr, ptr %4, align 8
  %9 = getelementptr inbounds %struct.Dar_Cut_t_, ptr %8, i32 0, i32 1
  %10 = load i32, ptr %9, align 4
  %11 = and i32 %10, 65535
  %12 = zext i32 %11 to i64
  %13 = getelementptr inbounds i8, ptr %7, i64 %12
  %14 = load i8, ptr %13, align 1
  %15 = sext i8 %14 to i32
  %16 = load ptr, ptr %3, align 8
  %17 = getelementptr inbounds %struct.Cnf_Man_t_, ptr %16, i32 0, i32 1
  %18 = load ptr, ptr %17, align 8
  %19 = load ptr, ptr %4, align 8
  %20 = getelementptr inbounds %struct.Dar_Cut_t_, ptr %19, i32 0, i32 1
  %21 = load i32, ptr %20, align 4
  %22 = and i32 %21, 65535
  %23 = xor i32 %22, -1
  %24 = and i32 65535, %23
  %25 = sext i32 %24 to i64
  %26 = getelementptr inbounds i8, ptr %18, i64 %25
  %27 = load i8, ptr %26, align 1
  %28 = sext i8 %27 to i32
  %29 = add nsw i32 %15, %28
  ret i32 %29
}

; Function Attrs: nounwind uwtable
define void @Cnf_CutAssignAreaFlow(ptr noundef %0, ptr noundef %1, ptr noundef %2) #0 {
  %4 = alloca ptr, align 8
  %5 = alloca ptr, align 8
  %6 = alloca ptr, align 8
  %7 = alloca ptr, align 8
  %8 = alloca i32, align 4
  store ptr %0, ptr %4, align 8
  store ptr %1, ptr %5, align 8
  store ptr %2, ptr %6, align 8
  %9 = load ptr, ptr %5, align 8
  %10 = getelementptr inbounds %struct.Dar_Cut_t_, ptr %9, i32 0, i32 1
  %11 = load i32, ptr %10, align 4
  %12 = and i32 %11, -134152193
  %13 = or i32 %12, 0
  store i32 %13, ptr %10, align 4
  %14 = load ptr, ptr %4, align 8
  %15 = load ptr, ptr %5, align 8
  %16 = call i32 @Cnf_CutSopCost(ptr noundef %14, ptr noundef %15)
  %17 = mul nsw i32 10, %16
  %18 = load ptr, ptr %5, align 8
  %19 = getelementptr inbounds %struct.Dar_Cut_t_, ptr %18, i32 0, i32 0
  store i32 %17, ptr %19, align 4
  store i32 0, ptr %8, align 4
  br label %20

20:                                               ; preds = %92, %3
  %21 = load i32, ptr %8, align 4
  %22 = load ptr, ptr %5, align 8
  %23 = getelementptr inbounds %struct.Dar_Cut_t_, ptr %22, i32 0, i32 1
  %24 = load i32, ptr %23, align 4
  %25 = lshr i32 %24, 29
  %26 = icmp slt i32 %21, %25
  br i1 %26, label %27, label %38

27:                                               ; preds = %20
  %28 = load ptr, ptr %4, align 8
  %29 = getelementptr inbounds %struct.Cnf_Man_t_, ptr %28, i32 0, i32 0
  %30 = load ptr, ptr %29, align 8
  %31 = load ptr, ptr %5, align 8
  %32 = getelementptr inbounds %struct.Dar_Cut_t_, ptr %31, i32 0, i32 2
  %33 = load i32, ptr %8, align 4
  %34 = sext i32 %33 to i64
  %35 = getelementptr inbounds [4 x i32], ptr %32, i64 0, i64 %34
  %36 = load i32, ptr %35, align 4
  %37 = call ptr @Aig_ManObj(ptr noundef %30, i32 noundef %36)
  store ptr %37, ptr %7, align 8
  br label %38

38:                                               ; preds = %27, %20
  %39 = phi i1 [ false, %20 ], [ true, %27 ]
  br i1 %39, label %40, label %95

40:                                               ; preds = %38
  %41 = load ptr, ptr %7, align 8
  %42 = getelementptr inbounds %struct.Aig_Obj_t_, ptr %41, i32 0, i32 3
  %43 = load i64, ptr %42, align 8
  %44 = lshr i64 %43, 6
  %45 = and i64 %44, 67108863
  %46 = trunc i64 %45 to i32
  %47 = load ptr, ptr %5, align 8
  %48 = getelementptr inbounds %struct.Dar_Cut_t_, ptr %47, i32 0, i32 1
  %49 = load i32, ptr %48, align 4
  %50 = lshr i32 %49, 16
  %51 = and i32 %50, 2047
  %52 = add nsw i32 %51, %46
  %53 = load i32, ptr %48, align 4
  %54 = and i32 %52, 2047
  %55 = shl i32 %54, 16
  %56 = and i32 %53, -134152193
  %57 = or i32 %56, %55
  store i32 %57, ptr %48, align 4
  %58 = load ptr, ptr %7, align 8
  %59 = call i32 @Aig_ObjIsNode(ptr noundef %58)
  %60 = icmp ne i32 %59, 0
  br i1 %60, label %62, label %61

61:                                               ; preds = %40
  br label %92

62:                                               ; preds = %40
  %63 = load ptr, ptr %6, align 8
  %64 = load ptr, ptr %7, align 8
  %65 = getelementptr inbounds %struct.Aig_Obj_t_, ptr %64, i32 0, i32 5
  %66 = load i32, ptr %65, align 4
  %67 = sext i32 %66 to i64
  %68 = getelementptr inbounds i32, ptr %63, i64 %67
  %69 = load i32, ptr %68, align 4
  %70 = load ptr, ptr %7, align 8
  %71 = getelementptr inbounds %struct.Aig_Obj_t_, ptr %70, i32 0, i32 3
  %72 = load i64, ptr %71, align 8
  %73 = lshr i64 %72, 6
  %74 = and i64 %73, 67108863
  %75 = trunc i64 %74 to i32
  %76 = icmp ne i32 %75, 0
  br i1 %76, label %77, label %84

77:                                               ; preds = %62
  %78 = load ptr, ptr %7, align 8
  %79 = getelementptr inbounds %struct.Aig_Obj_t_, ptr %78, i32 0, i32 3
  %80 = load i64, ptr %79, align 8
  %81 = lshr i64 %80, 6
  %82 = and i64 %81, 67108863
  %83 = trunc i64 %82 to i32
  br label %85

84:                                               ; preds = %62
  br label %85

85:                                               ; preds = %84, %77
  %86 = phi i32 [ %83, %77 ], [ 1, %84 ]
  %87 = sdiv i32 %69, %86
  %88 = load ptr, ptr %5, align 8
  %89 = getelementptr inbounds %struct.Dar_Cut_t_, ptr %88, i32 0, i32 0
  %90 = load i32, ptr %89, align 4
  %91 = add i32 %90, %87
  store i32 %91, ptr %89, align 4
  br label %92

92:                                               ; preds = %85, %61
  %93 = load i32, ptr %8, align 4
  %94 = add nsw i32 %93, 1
  store i32 %94, ptr %8, align 4
  br label %20, !llvm.loop !4

95:                                               ; preds = %38
  ret void
}