; Function Attrs: nofree norecurse nosync nounwind memory(read, argmem: readwrite, inaccessiblemem: none) uwtable
define void @Cnf_CutAssignAreaFlow(ptr noundef readonly captures(none) %0, ptr noundef captures(none) initializes((0, 4)) %1, ptr noundef readonly captures(none) %2) local_unnamed_addr #0 {
  %4 = getelementptr inbounds nuw i8, ptr %1, i64 4
  %5 = load i32, ptr %4, align 4
  %6 = and i32 %5, -134152193
  store i32 %6, ptr %4, align 4
  %7 = getelementptr i8, ptr %0, i64 8
  %.val = load ptr, ptr %7, align 8
  %8 = and i32 %5, 65535
  %9 = zext nneg i32 %8 to i64
  %10 = getelementptr inbounds nuw i8, ptr %.val, i64 %9
  %11 = load i8, ptr %10, align 1
  %12 = sext i8 %11 to i32
  %13 = xor i32 %8, 65535
  %14 = zext nneg i32 %13 to i64
  %15 = getelementptr inbounds nuw i8, ptr %.val, i64 %14
  %16 = load i8, ptr %15, align 1
  %17 = sext i8 %16 to i32
  %18 = add nsw i32 %17, %12
  %19 = mul nsw i32 %18, 10
  store i32 %19, ptr %1, align 4
  %.not = icmp ult i32 %5, 536870912
  br i1 %.not, label %.critedge, label %.lr.ph

.lr.ph:                                           ; preds = %3
  %20 = getelementptr inbounds nuw i8, ptr %1, i64 8
  br label %21

21:                                               ; preds = %.lr.ph, %55
  %22 = phi i32 [ %19, %.lr.ph ], [ %56, %55 ]
  %indvars.iv = phi i64 [ 0, %.lr.ph ], [ %indvars.iv.next, %55 ]
  %23 = phi i32 [ %6, %.lr.ph ], [ %42, %55 ]
  %24 = load ptr, ptr %0, align 8
  %25 = getelementptr i8, ptr %24, i64 32
  %.val20 = load ptr, ptr %25, align 8
  %.not.i = icmp eq ptr %.val20, null
  br i1 %.not.i, label %Aig_ManObj.exit, label %26

26:                                               ; preds = %21
  %27 = getelementptr inbounds nuw [4 x i32], ptr %20, i64 0, i64 %indvars.iv
  %28 = load i32, ptr %27, align 4
  %29 = getelementptr i8, ptr %.val20, i64 8
  %.val.i = load ptr, ptr %29, align 8
  %30 = sext i32 %28 to i64
  %31 = getelementptr inbounds ptr, ptr %.val.i, i64 %30
  %32 = load ptr, ptr %31, align 8
  br label %Aig_ManObj.exit

Aig_ManObj.exit:                                  ; preds = %21, %26
  %33 = phi ptr [ %32, %26 ], [ null, %21 ]
  %34 = getelementptr inbounds nuw i8, ptr %33, i64 24
  %35 = load i64, ptr %34, align 8
  %36 = trunc i64 %35 to i32
  %37 = shl i32 %36, 10
  %38 = and i32 %37, 134152192
  %39 = add i32 %38, %23
  %40 = and i32 %39, 134152192
  %41 = and i32 %23, -134152193
  %42 = or disjoint i32 %40, %41
  store i32 %42, ptr %4, align 4
  %.val21 = load i64, ptr %34, align 8
  %43 = trunc i64 %.val21 to i32
  %44 = and i32 %43, 7
  %45 = add nsw i32 %44, -7
  %narrow.i = icmp ult i32 %45, -2
  br i1 %narrow.i, label %55, label %46

46:                                               ; preds = %Aig_ManObj.exit
  %47 = getelementptr inbounds nuw i8, ptr %33, i64 36
  %48 = load i32, ptr %47, align 4
  %49 = sext i32 %48 to i64
  %50 = getelementptr inbounds i32, ptr %2, i64 %49
  %51 = load i32, ptr %50, align 4
  %52 = tail call i32 @llvm.umax.i32(i32 %43, i32 64)
  %spec.select = lshr i32 %52, 6
  %53 = sdiv i32 %51, %spec.select
  %54 = add i32 %22, %53
  store i32 %54, ptr %1, align 4
  br label %55

55:                                               ; preds = %Aig_ManObj.exit, %46
  %56 = phi i32 [ %22, %Aig_ManObj.exit ], [ %54, %46 ]
  %indvars.iv.next = add nuw nsw i64 %indvars.iv, 1
  %57 = lshr i32 %23, 29
  %58 = zext nneg i32 %57 to i64
  %59 = icmp samesign ult i64 %indvars.iv.next, %58
  br i1 %59, label %21, label %.critedge, !llvm.loop !4

.critedge:                                        ; preds = %55, %3
  ret void
}